target datalayout = "e-m:e-p270:32:32-p271:32:32-p272:64:64-i64:64-i128:128-f80:128-n8:16:32:64-S128"
target triple = "x86_64-pc-linux-gnu"

@.str = private unnamed_addr constant [33 x i8] c"%s failed%s%s%s, errno = %i (%s)\00", align 1
@.str.1 = private unnamed_addr constant [20 x i8] c" (additional info: \00", align 1
@.str.2 = private unnamed_addr constant [1 x i8] zeroinitializer, align 1
@.str.3 = private unnamed_addr constant [2 x i8] c")\00", align 1
@.str.14 = private unnamed_addr constant [53 x i8] c"zmq_setsockopt (skt, ZMQ_SNDHWM, &hwm, sizeof (hwm))\00", align 1
@.str.15 = private unnamed_addr constant [53 x i8] c"zmq_setsockopt (skt, ZMQ_RCVHWM, &hwm, sizeof (hwm))\00", align 1

; Function Attrs: mustprogress uwtable
define dso_local noundef i32 @_Z40test_assert_success_message_errno_helperiPKcS0_(i32 noundef %0, ptr noundef %1, ptr noundef %2) #0 {
  %4 = alloca i32, align 4
  %5 = alloca ptr, align 8
  %6 = alloca ptr, align 8
  %7 = alloca [512 x i8], align 16
  store i32 %0, ptr %4, align 4, !tbaa !4
  store ptr %1, ptr %5, align 8, !tbaa !8
  store ptr %2, ptr %6, align 8, !tbaa !8
  %8 = load i32, ptr %4, align 4, !tbaa !4
  %9 = icmp eq i32 %8, -1
  br i1 %9, label %10, label %30

10:                                               ; preds = %3
  call void @llvm.lifetime.start.p0(i64 512, ptr %7) #9
  %11 = getelementptr inbounds nuw [512 x i8], ptr %7, i64 0, i64 511
  store i8 0, ptr %11, align 1, !tbaa !11
  %12 = load ptr, ptr %6, align 8, !tbaa !8
  %13 = load ptr, ptr %5, align 8, !tbaa !8
  %14 = icmp ne ptr %13, null
  %15 = select i1 %14, ptr @.str.1, ptr @.str.2
  %16 = load ptr, ptr %5, align 8, !tbaa !8
  %17 = icmp ne ptr %16, null
  br i1 %17, label %18, label %20

18:                                               ; preds = %10
  %19 = load ptr, ptr %5, align 8, !tbaa !8
  br label %21

20:                                               ; preds = %10
  br label %21

21:                                               ; preds = %20, %18
  %22 = phi ptr [ %19, %18 ], [ @.str.2, %20 ]
  %23 = load ptr, ptr %5, align 8, !tbaa !8
  %24 = icmp ne ptr %23, null
  %25 = select i1 %24, ptr @.str.3, ptr @.str.2
  %26 = call i32 @zmq_errno()
  %27 = call i32 @zmq_errno()
  %28 = call ptr @zmq_strerror(i32 noundef %27)
  %29 = call i32 (ptr, ...) @printf(ptr noundef @.str, ptr noundef %12, ptr noundef %15, ptr noundef %22, ptr noundef %25, i32 noundef %26, ptr noundef %28)
  call void @exit(i32 noundef 1) #10
  unreachable

30:                                               ; preds = %3
  %31 = load i32, ptr %4, align 4, !tbaa !4
  ret i32 %31
}

; Function Attrs: mustprogress uwtable
define internal void @_ZL7set_hwmPv(ptr noundef %0) #0 {
  %2 = alloca ptr, align 8
  %3 = alloca i32, align 4
  store ptr %0, ptr %2, align 8, !tbaa !12
  call void @llvm.lifetime.start.p0(i64 4, ptr %3) #9
  store i32 10000, ptr %3, align 4, !tbaa !4
  %4 = load ptr, ptr %2, align 8, !tbaa !12
  %5 = call i32 @zmq_setsockopt(ptr noundef %4, i32 noundef 23, ptr noundef %3, i64 noundef 4)
  %6 = call noundef i32 @_Z40test_assert_success_message_errno_helperiPKcS0_(i32 noundef %5, ptr noundef null, ptr noundef @.str.14)
  %7 = load ptr, ptr %2, align 8, !tbaa !12
  %8 = call i32 @zmq_setsockopt(ptr noundef %7, i32 noundef 24, ptr noundef %3, i64 noundef 4)
  %9 = call noundef i32 @_Z40test_assert_success_message_errno_helperiPKcS0_(i32 noundef %8, ptr noundef null, ptr noundef @.str.15)
  call void @llvm.lifetime.end.p0(i64 4, ptr %3) #9
  ret void
}