; Function Attrs: mustprogress uwtable
define internal fastcc void @_ZL7set_hwmPv(ptr noundef %0) unnamed_addr #0 {
  %2 = alloca i32, align 4
  call void @llvm.lifetime.start.p0(i64 4, ptr nonnull %2) #11
  store i32 10000, ptr %2, align 4, !tbaa !16
  %3 = call i32 @zmq_setsockopt(ptr noundef %0, i32 noundef 23, ptr noundef nonnull %2, i64 noundef 4)
  %4 = icmp eq i32 %3, -1
  br i1 %4, label %5, label %_Z40test_assert_success_message_errno_helperiPKcS0_.exit

5:                                                ; preds = %1
  %6 = call i32 @zmq_errno()
  %7 = call i32 @zmq_errno()
  %8 = call ptr @zmq_strerror(i32 noundef %7)
  %9 = call i32 (ptr, ...) @printf(ptr noundef nonnull dereferenceable(1) @.str, ptr noundef nonnull @.str.14, ptr noundef nonnull @.str.2, ptr noundef nonnull @.str.2, ptr noundef nonnull @.str.2, i32 noundef %6, ptr noundef %8)
  call void @exit(i32 noundef 1) #10
  unreachable

_Z40test_assert_success_message_errno_helperiPKcS0_.exit: ; preds = %1
  %10 = call i32 @zmq_setsockopt(ptr noundef %0, i32 noundef 24, ptr noundef nonnull %2, i64 noundef 4)
  %11 = icmp eq i32 %10, -1
  br i1 %11, label %12, label %_Z40test_assert_success_message_errno_helperiPKcS0_.exit2

12:                                               ; preds = %_Z40test_assert_success_message_errno_helperiPKcS0_.exit
  %13 = call i32 @zmq_errno()
  %14 = call i32 @zmq_errno()
  %15 = call ptr @zmq_strerror(i32 noundef %14)
  %16 = call i32 (ptr, ...) @printf(ptr noundef nonnull dereferenceable(1) @.str, ptr noundef nonnull @.str.15, ptr noundef nonnull @.str.2, ptr noundef nonnull @.str.2, ptr noundef nonnull @.str.2, i32 noundef %13, ptr noundef %15)
  call void @exit(i32 noundef 1) #10
  unreachable

_Z40test_assert_success_message_errno_helperiPKcS0_.exit2: ; preds = %_Z40test_assert_success_message_errno_helperiPKcS0_.exit
  call void @llvm.lifetime.end.p0(i64 4, ptr nonnull %2) #11
  ret void
}